target datalayout = "e-m:e-p270:32:32-p271:32:32-p272:64:64-i64:64-i128:128-f80:128-n8:16:32:64-S128"
target triple = "x86_64-pc-linux-gnu"

%"struct.Luau::CodeGen::BuiltinImplResult" = type { i32, i32 }
%"struct.Luau::CodeGen::IrOp" = type { i32 }

; Function Attrs: mustprogress uwtable
define internal i64 @_ZN4Luau7CodeGenL26translateBuiltinVectorMap1ERNS0_9IrBuilderENS0_5IrCmdEiiiNS0_4IrOpES4_ii(ptr noundef nonnull align 8 dereferenceable(752) %0, i8 noundef zeroext %1, i32 noundef %2, i32 noundef %3, i32 noundef %4, i32 %5, i32 %6, i32 noundef %7, i32 noundef %8) #2 {
  %10 = alloca %"struct.Luau::CodeGen::BuiltinImplResult", align 4
  %11 = alloca %"struct.Luau::CodeGen::IrOp", align 4
  %12 = alloca %"struct.Luau::CodeGen::IrOp", align 4
  %13 = alloca ptr, align 8
  %14 = alloca i8, align 1
  %15 = alloca i32, align 4
  %16 = alloca i32, align 4
  %17 = alloca i32, align 4
  %18 = alloca i32, align 4
  %19 = alloca i32, align 4
  %20 = alloca %"struct.Luau::CodeGen::IrOp", align 4
  %21 = alloca i32, align 4
  %22 = alloca %"struct.Luau::CodeGen::IrOp", align 4
  %23 = alloca %"struct.Luau::CodeGen::IrOp", align 4
  %24 = alloca %"struct.Luau::CodeGen::IrOp", align 4
  %25 = alloca %"struct.Luau::CodeGen::IrOp", align 4
  %26 = alloca %"struct.Luau::CodeGen::IrOp", align 4
  %27 = alloca %"struct.Luau::CodeGen::IrOp", align 4
  %28 = alloca %"struct.Luau::CodeGen::IrOp", align 4
  %29 = alloca %"struct.Luau::CodeGen::IrOp", align 4
  %30 = alloca %"struct.Luau::CodeGen::IrOp", align 4
  %31 = alloca %"struct.Luau::CodeGen::IrOp", align 4
  %32 = alloca %"struct.Luau::CodeGen::IrOp", align 4
  %33 = alloca %"struct.Luau::CodeGen::IrOp", align 4
  %34 = alloca %"struct.Luau::CodeGen::IrOp", align 4
  %35 = alloca %"struct.Luau::CodeGen::IrOp", align 4
  %36 = alloca %"struct.Luau::CodeGen::IrOp", align 4
  %37 = alloca %"struct.Luau::CodeGen::IrOp", align 4
  %38 = alloca %"struct.Luau::CodeGen::IrOp", align 4
  %39 = alloca %"struct.Luau::CodeGen::IrOp", align 4
  %40 = alloca %"struct.Luau::CodeGen::IrOp", align 4
  %41 = alloca %"struct.Luau::CodeGen::IrOp", align 4
  %42 = alloca %"struct.Luau::CodeGen::IrOp", align 4
  %43 = alloca %"struct.Luau::CodeGen::IrOp", align 4
  %44 = alloca %"struct.Luau::CodeGen::IrOp", align 4
  %45 = alloca %"struct.Luau::CodeGen::IrOp", align 4
  %46 = alloca %"struct.Luau::CodeGen::IrOp", align 4
  %47 = getelementptr inbounds nuw %"struct.Luau::CodeGen::IrOp", ptr %11, i32 0, i32 0
  store i32 %5, ptr %47, align 4
  %48 = getelementptr inbounds nuw %"struct.Luau::CodeGen::IrOp", ptr %12, i32 0, i32 0
  store i32 %6, ptr %48, align 4
  store ptr %0, ptr %13, align 8, !tbaa !20
  store i8 %1, ptr %14, align 1, !tbaa !32
  store i32 %2, ptr %15, align 4, !tbaa !22
  store i32 %3, ptr %16, align 4, !tbaa !22
  store i32 %4, ptr %17, align 4, !tbaa !22
  store i32 %7, ptr %18, align 4, !tbaa !22
  store i32 %8, ptr %19, align 4, !tbaa !22
  call void @llvm.lifetime.start.p0(i64 4, ptr %20) #11
  %49 = load ptr, ptr %13, align 8, !tbaa !20
  %50 = load i32, ptr %17, align 4, !tbaa !22
  %51 = trunc i32 %50 to i8
  %52 = call i32 @_ZN4Luau7CodeGen9IrBuilder5vmRegEh(ptr noundef nonnull align 8 dereferenceable(752) %49, i8 noundef zeroext %51)
  %53 = getelementptr inbounds nuw %"struct.Luau::CodeGen::IrOp", ptr %20, i32 0, i32 0
  store i32 %52, ptr %53, align 4
  %54 = load i32, ptr %15, align 4, !tbaa !22
  %55 = icmp ne i32 %54, 1
  br i1 %55, label %63, label %56

56:                                               ; preds = %9
  %57 = load i32, ptr %18, align 4, !tbaa !22
  %58 = icmp sgt i32 %57, 1
  br i1 %58, label %63, label %59

59:                                               ; preds = %56
  %60 = load i32, ptr %20, align 4
  %61 = and i32 %60, 15
  %62 = icmp eq i32 %61, 2
  br i1 %62, label %63, label %66

63:                                               ; preds = %59, %56, %9
  %64 = getelementptr inbounds nuw %"struct.Luau::CodeGen::BuiltinImplResult", ptr %10, i32 0, i32 0
  store i32 0, ptr %64, align 4, !tbaa !24
  %65 = getelementptr inbounds nuw %"struct.Luau::CodeGen::BuiltinImplResult", ptr %10, i32 0, i32 1
  store i32 -1, ptr %65, align 4, !tbaa !27
  store i32 1, ptr %21, align 4
  br label %157

66:                                               ; preds = %59
  %67 = load ptr, ptr %13, align 8, !tbaa !20
  call void @llvm.memcpy.p0.p0.i64(ptr align 4 %22, ptr align 4 %20, i64 4, i1 false), !tbaa.struct !28
  %68 = load ptr, ptr %13, align 8, !tbaa !20
  %69 = load i32, ptr %19, align 4, !tbaa !22
  %70 = call i32 @_ZN4Luau7CodeGen9IrBuilder6vmExitEj(ptr noundef nonnull align 8 dereferenceable(752) %68, i32 noundef %69)
  %71 = getelementptr inbounds nuw %"struct.Luau::CodeGen::IrOp", ptr %23, i32 0, i32 0
  store i32 %70, ptr %71, align 4
  %72 = getelementptr inbounds nuw %"struct.Luau::CodeGen::IrOp", ptr %22, i32 0, i32 0
  %73 = load i32, ptr %72, align 4
  %74 = getelementptr inbounds nuw %"struct.Luau::CodeGen::IrOp", ptr %23, i32 0, i32 0
  %75 = load i32, ptr %74, align 4
  call void @_ZN4Luau7CodeGen9IrBuilder15loadAndCheckTagENS0_4IrOpEhS2_(ptr noundef nonnull align 8 dereferenceable(752) %67, i32 %73, i8 noundef zeroext 4, i32 %75)
  call void @llvm.lifetime.start.p0(i64 4, ptr %24) #11
  %76 = load ptr, ptr %13, align 8, !tbaa !20
  call void @llvm.memcpy.p0.p0.i64(ptr align 4 %25, ptr align 4 %20, i64 4, i1 false), !tbaa.struct !28
  %77 = load ptr, ptr %13, align 8, !tbaa !20
  %78 = call i32 @_ZN4Luau7CodeGen9IrBuilder8constIntEi(ptr noundef nonnull align 8 dereferenceable(752) %77, i32 noundef 0)
  %79 = getelementptr inbounds nuw %"struct.Luau::CodeGen::IrOp", ptr %26, i32 0, i32 0
  store i32 %78, ptr %79, align 4
  %80 = getelementptr inbounds nuw %"struct.Luau::CodeGen::IrOp", ptr %25, i32 0, i32 0
  %81 = load i32, ptr %80, align 4
  %82 = getelementptr inbounds nuw %"struct.Luau::CodeGen::IrOp", ptr %26, i32 0, i32 0
  %83 = load i32, ptr %82, align 4
  %84 = call i32 @_ZN4Luau7CodeGen9IrBuilder4instENS0_5IrCmdENS0_4IrOpES3_(ptr noundef nonnull align 8 dereferenceable(752) %76, i8 noundef zeroext 5, i32 %81, i32 %83)
  %85 = getelementptr inbounds nuw %"struct.Luau::CodeGen::IrOp", ptr %24, i32 0, i32 0
  store i32 %84, ptr %85, align 4
  call void @llvm.lifetime.start.p0(i64 4, ptr %27) #11
  %86 = load ptr, ptr %13, align 8, !tbaa !20
  call void @llvm.memcpy.p0.p0.i64(ptr align 4 %28, ptr align 4 %20, i64 4, i1 false), !tbaa.struct !28
  %87 = load ptr, ptr %13, align 8, !tbaa !20
  %88 = call i32 @_ZN4Luau7CodeGen9IrBuilder8constIntEi(ptr noundef nonnull align 8 dereferenceable(752) %87, i32 noundef 4)
  %89 = getelementptr inbounds nuw %"struct.Luau::CodeGen::IrOp", ptr %29, i32 0, i32 0
  store i32 %88, ptr %89, align 4
  %90 = getelementptr inbounds nuw %"struct.Luau::CodeGen::IrOp", ptr %28, i32 0, i32 0
  %91 = load i32, ptr %90, align 4
  %92 = getelementptr inbounds nuw %"struct.Luau::CodeGen::IrOp", ptr %29, i32 0, i32 0
  %93 = load i32, ptr %92, align 4
  %94 = call i32 @_ZN4Luau7CodeGen9IrBuilder4instENS0_5IrCmdENS0_4IrOpES3_(ptr noundef nonnull align 8 dereferenceable(752) %86, i8 noundef zeroext 5, i32 %91, i32 %93)
  %95 = getelementptr inbounds nuw %"struct.Luau::CodeGen::IrOp", ptr %27, i32 0, i32 0
  store i32 %94, ptr %95, align 4
  call void @llvm.lifetime.start.p0(i64 4, ptr %30) #11
  %96 = load ptr, ptr %13, align 8, !tbaa !20
  call void @llvm.memcpy.p0.p0.i64(ptr align 4 %31, ptr align 4 %20, i64 4, i1 false), !tbaa.struct !28
  %97 = load ptr, ptr %13, align 8, !tbaa !20
  %98 = call i32 @_ZN4Luau7CodeGen9IrBuilder8constIntEi(ptr noundef nonnull align 8 dereferenceable(752) %97, i32 noundef 8)
  %99 = getelementptr inbounds nuw %"struct.Luau::CodeGen::IrOp", ptr %32, i32 0, i32 0
  store i32 %98, ptr %99, align 4
  %100 = getelementptr inbounds nuw %"struct.Luau::CodeGen::IrOp", ptr %31, i32 0, i32 0
  %101 = load i32, ptr %100, align 4
  %102 = getelementptr inbounds nuw %"struct.Luau::CodeGen::IrOp", ptr %32, i32 0, i32 0
  %103 = load i32, ptr %102, align 4
  %104 = call i32 @_ZN4Luau7CodeGen9IrBuilder4instENS0_5IrCmdENS0_4IrOpES3_(ptr noundef nonnull align 8 dereferenceable(752) %96, i8 noundef zeroext 5, i32 %101, i32 %103)
  %105 = getelementptr inbounds nuw %"struct.Luau::CodeGen::IrOp", ptr %30, i32 0, i32 0
  store i32 %104, ptr %105, align 4
  call void @llvm.lifetime.start.p0(i64 4, ptr %33) #11
  %106 = load ptr, ptr %13, align 8, !tbaa !20
  %107 = load i8, ptr %14, align 1, !tbaa !32
  call void @llvm.memcpy.p0.p0.i64(ptr align 4 %34, ptr align 4 %24, i64 4, i1 false), !tbaa.struct !28
  %108 = getelementptr inbounds nuw %"struct.Luau::CodeGen::IrOp", ptr %34, i32 0, i32 0
  %109 = load i32, ptr %108, align 4
  %110 = call i32 @_ZN4Luau7CodeGen9IrBuilder4instENS0_5IrCmdENS0_4IrOpE(ptr noundef nonnull align 8 dereferenceable(752) %106, i8 noundef zeroext %107, i32 %109)
  %111 = getelementptr inbounds nuw %"struct.Luau::CodeGen::IrOp", ptr %33, i32 0, i32 0
  store i32 %110, ptr %111, align 4
  call void @llvm.lifetime.start.p0(i64 4, ptr %35) #11
  %112 = load ptr, ptr %13, align 8, !tbaa !20
  %113 = load i8, ptr %14, align 1, !tbaa !32
  call void @llvm.memcpy.p0.p0.i64(ptr align 4 %36, ptr align 4 %27, i64 4, i1 false), !tbaa.struct !28
  %114 = getelementptr inbounds nuw %"struct.Luau::CodeGen::IrOp", ptr %36, i32 0, i32 0
  %115 = load i32, ptr %114, align 4
  %116 = call i32 @_ZN4Luau7CodeGen9IrBuilder4instENS0_5IrCmdENS0_4IrOpE(ptr noundef nonnull align 8 dereferenceable(752) %112, i8 noundef zeroext %113, i32 %115)
  %117 = getelementptr inbounds nuw %"struct.Luau::CodeGen::IrOp", ptr %35, i32 0, i32 0
  store i32 %116, ptr %117, align 4
  call void @llvm.lifetime.start.p0(i64 4, ptr %37) #11
  %118 = load ptr, ptr %13, align 8, !tbaa !20
  %119 = load i8, ptr %14, align 1, !tbaa !32
  call void @llvm.memcpy.p0.p0.i64(ptr align 4 %38, ptr align 4 %30, i64 4, i1 false), !tbaa.struct !28
  %120 = getelementptr inbounds nuw %"struct.Luau::CodeGen::IrOp", ptr %38, i32 0, i32 0
  %121 = load i32, ptr %120, align 4
  %122 = call i32 @_ZN4Luau7CodeGen9IrBuilder4instENS0_5IrCmdENS0_4IrOpE(ptr noundef nonnull align 8 dereferenceable(752) %118, i8 noundef zeroext %119, i32 %121)
  %123 = getelementptr inbounds nuw %"struct.Luau::CodeGen::IrOp", ptr %37, i32 0, i32 0
  store i32 %122, ptr %123, align 4
  %124 = load ptr, ptr %13, align 8, !tbaa !20
  %125 = load ptr, ptr %13, align 8, !tbaa !20
  %126 = load i32, ptr %16, align 4, !tbaa !22
  %127 = trunc i32 %126 to i8
  %128 = call i32 @_ZN4Luau7CodeGen9IrBuilder5vmRegEh(ptr noundef nonnull align 8 dereferenceable(752) %125, i8 noundef zeroext %127)
  %129 = getelementptr inbounds nuw %"struct.Luau::CodeGen::IrOp", ptr %39, i32 0, i32 0
  store i32 %128, ptr %129, align 4
  call void @llvm.memcpy.p0.p0.i64(ptr align 4 %40, ptr align 4 %33, i64 4, i1 false), !tbaa.struct !28
  call void @llvm.memcpy.p0.p0.i64(ptr align 4 %41, ptr align 4 %35, i64 4, i1 false), !tbaa.struct !28
  call void @llvm.memcpy.p0.p0.i64(ptr align 4 %42, ptr align 4 %37, i64 4, i1 false), !tbaa.struct !28
  %130 = getelementptr inbounds nuw %"struct.Luau::CodeGen::IrOp", ptr %39, i32 0, i32 0
  %131 = load i32, ptr %130, align 4
  %132 = getelementptr inbounds nuw %"struct.Luau::CodeGen::IrOp", ptr %40, i32 0, i32 0
  %133 = load i32, ptr %132, align 4
  %134 = getelementptr inbounds nuw %"struct.Luau::CodeGen::IrOp", ptr %41, i32 0, i32 0
  %135 = load i32, ptr %134, align 4
  %136 = getelementptr inbounds nuw %"struct.Luau::CodeGen::IrOp", ptr %42, i32 0, i32 0
  %137 = load i32, ptr %136, align 4
  %138 = call i32 @_ZN4Luau7CodeGen9IrBuilder4instENS0_5IrCmdENS0_4IrOpES3_S3_S3_(ptr noundef nonnull align 8 dereferenceable(752) %124, i8 noundef zeroext 17, i32 %131, i32 %133, i32 %135, i32 %137)
  %139 = getelementptr inbounds nuw %"struct.Luau::CodeGen::IrOp", ptr %43, i32 0, i32 0
  store i32 %138, ptr %139, align 4
  %140 = load ptr, ptr %13, align 8, !tbaa !20
  %141 = load ptr, ptr %13, align 8, !tbaa !20
  %142 = load i32, ptr %16, align 4, !tbaa !22
  %143 = trunc i32 %142 to i8
  %144 = call i32 @_ZN4Luau7CodeGen9IrBuilder5vmRegEh(ptr noundef nonnull align 8 dereferenceable(752) %141, i8 noundef zeroext %143)
  %145 = getelementptr inbounds nuw %"struct.Luau::CodeGen::IrOp", ptr %44, i32 0, i32 0
  store i32 %144, ptr %145, align 4
  %146 = load ptr, ptr %13, align 8, !tbaa !20
  %147 = call i32 @_ZN4Luau7CodeGen9IrBuilder8constTagEh(ptr noundef nonnull align 8 dereferenceable(752) %146, i8 noundef zeroext 4)
  %148 = getelementptr inbounds nuw %"struct.Luau::CodeGen::IrOp", ptr %45, i32 0, i32 0
  store i32 %147, ptr %148, align 4
  %149 = getelementptr inbounds nuw %"struct.Luau::CodeGen::IrOp", ptr %44, i32 0, i32 0
  %150 = load i32, ptr %149, align 4
  %151 = getelementptr inbounds nuw %"struct.Luau::CodeGen::IrOp", ptr %45, i32 0, i32 0
  %152 = load i32, ptr %151, align 4
  %153 = call i32 @_ZN4Luau7CodeGen9IrBuilder4instENS0_5IrCmdENS0_4IrOpES3_(ptr noundef nonnull align 8 dereferenceable(752) %140, i8 noundef zeroext 12, i32 %150, i32 %152)
  %154 = getelementptr inbounds nuw %"struct.Luau::CodeGen::IrOp", ptr %46, i32 0, i32 0
  store i32 %153, ptr %154, align 4
  %155 = getelementptr inbounds nuw %"struct.Luau::CodeGen::BuiltinImplResult", ptr %10, i32 0, i32 0
  store i32 2, ptr %155, align 4, !tbaa !24
  %156 = getelementptr inbounds nuw %"struct.Luau::CodeGen::BuiltinImplResult", ptr %10, i32 0, i32 1
  store i32 1, ptr %156, align 4, !tbaa !27
  store i32 1, ptr %21, align 4
  call void @llvm.lifetime.end.p0(i64 4, ptr %37) #11
  call void @llvm.lifetime.end.p0(i64 4, ptr %35) #11
  call void @llvm.lifetime.end.p0(i64 4, ptr %33) #11
  call void @llvm.lifetime.end.p0(i64 4, ptr %30) #11
  call void @llvm.lifetime.end.p0(i64 4, ptr %27) #11
  call void @llvm.lifetime.end.p0(i64 4, ptr %24) #11
  br label %157

157:                                              ; preds = %66, %63
  call void @llvm.lifetime.end.p0(i64 4, ptr %20) #11
  %158 = load i64, ptr %10, align 4
  ret i64 %158
}